; Function Attrs: mustprogress uwtable
define noundef ptr @_ZNK6icu_7515AlphabeticIndex13getRecordDataEv(ptr nocapture noundef nonnull readonly align 8 dereferenceable(400) %this) unnamed_addr #3 align 2 {
entry:
  %currentBucket_ = getelementptr inbounds i8, ptr %this, i64 24
  %0 = load ptr, ptr %currentBucket_, align 8
  %cmp.not = icmp eq ptr %0, null
  br i1 %cmp.not, label %if.end, label %land.lhs.true

land.lhs.true:                                    ; preds = %entry
  %records_ = getelementptr inbounds i8, ptr %0, i64 160
  %1 = load ptr, ptr %records_, align 8
  %cmp3.not = icmp eq ptr %1, null
  br i1 %cmp3.not, label %if.end, label %land.lhs.true4

land.lhs.true4:                                   ; preds = %land.lhs.true
  %itemsIterIndex_ = getelementptr inbounds i8, ptr %this, i64 20
  %2 = load i32, ptr %itemsIterIndex_, align 4
  %cmp5 = icmp sgt i32 %2, -1
  br i1 %cmp5, label %land.lhs.true6, label %if.end

land.lhs.true6:                                   ; preds = %land.lhs.true4
  %count.i = getelementptr inbounds i8, ptr %1, i64 8
  %3 = load i32, ptr %count.i, align 8
  %cmp10 = icmp slt i32 %2, %3
  br i1 %cmp10, label %if.then, label %if.end

if.then:                                          ; preds = %land.lhs.true6
  %call14 = tail call noundef ptr @_ZNK6icu_757UVector9elementAtEi(ptr noundef nonnull align 8 dereferenceable(40) %1, i32 noundef %2)
  %data_ = getelementptr inbounds i8, ptr %call14, i64 72
  %4 = load ptr, ptr %data_, align 8
  br label %if.end

if.end:                                           ; preds = %if.then, %land.lhs.true6, %land.lhs.true4, %land.lhs.true, %entry
  %retPtr.0 = phi ptr [ %4, %if.then ], [ null, %land.lhs.true6 ], [ null, %land.lhs.true4 ], [ null, %land.lhs.true ], [ null, %entry ]
  ret ptr %retPtr.0
}